target datalayout = "e-m:e-p270:32:32-p271:32:32-p272:64:64-i64:64-i128:128-f80:128-n8:16:32:64-S128"
target triple = "x86_64-pc-linux-gnu"

%"struct.Luau::TypePath::Path" = type { %"class.std::vector" }
%"class.std::vector" = type { %"struct.std::_Vector_base" }
%"struct.std::_Vector_base" = type { %"struct.std::_Vector_base<Luau::Variant<Luau::TypePath::Property, Luau::TypePath::Index, Luau::TypePath::TypeField, Luau::TypePath::PackField, Luau::TypePath::Reduction>, std::allocator<Luau::Variant<Luau::TypePath::Property, Luau::TypePath::Index, Luau::TypePath::TypeField, Luau::TypePath::PackField, Luau::TypePath::Reduction>>>::_Vector_impl" }
%"struct.std::_Vector_base<Luau::Variant<Luau::TypePath::Property, Luau::TypePath::Index, Luau::TypePath::TypeField, Luau::TypePath::PackField, Luau::TypePath::Reduction>, std::allocator<Luau::Variant<Luau::TypePath::Property, Luau::TypePath::Index, Luau::TypePath::TypeField, Luau::TypePath::PackField, Luau::TypePath::Reduction>>>::_Vector_impl" = type { %"struct.std::_Vector_base<Luau::Variant<Luau::TypePath::Property, Luau::TypePath::Index, Luau::TypePath::TypeField, Luau::TypePath::PackField, Luau::TypePath::Reduction>, std::allocator<Luau::Variant<Luau::TypePath::Property, Luau::TypePath::Index, Luau::TypePath::TypeField, Luau::TypePath::PackField, Luau::TypePath::Reduction>>>::_Vector_impl_data" }
%"struct.std::_Vector_base<Luau::Variant<Luau::TypePath::Property, Luau::TypePath::Index, Luau::TypePath::TypeField, Luau::TypePath::PackField, Luau::TypePath::Reduction>, std::allocator<Luau::Variant<Luau::TypePath::Property, Luau::TypePath::Index, Luau::TypePath::TypeField, Luau::TypePath::PackField, Luau::TypePath::Reduction>>>::_Vector_impl_data" = type { ptr, ptr, ptr }
%"struct.Luau::SubtypingReasoning" = type <{ %"struct.Luau::TypePath::Path", %"struct.Luau::TypePath::Path", i32, [4 x i8] }>
%"class.Luau::DenseHashSet" = type { %"class.Luau::detail::DenseHashTable" }
%"class.Luau::detail::DenseHashTable" = type <{ ptr, i64, i64, %"struct.Luau::SubtypingReasoning", [8 x i8] }>
%"struct.Luau::SubtypingResult" = type { i8, i8, i8, %"class.std::vector.0", %"class.Luau::DenseHashSet" }
%"class.std::vector.0" = type { %"struct.std::_Vector_base.1" }
%"struct.std::_Vector_base.1" = type { %"struct.std::_Vector_base<Luau::TypeError, std::allocator<Luau::TypeError>>::_Vector_impl" }
%"struct.std::_Vector_base<Luau::TypeError, std::allocator<Luau::TypeError>>::_Vector_impl" = type { %"struct.std::_Vector_base<Luau::TypeError, std::allocator<Luau::TypeError>>::_Vector_impl_data" }
%"struct.std::_Vector_base<Luau::TypeError, std::allocator<Luau::TypeError>>::_Vector_impl_data" = type { ptr, ptr, ptr }

@_ZN4LuauL15kEmptyReasoningE = internal global %"struct.Luau::SubtypingReasoning" zeroinitializer, align 8

; Function Attrs: mustprogress nounwind uwtable
define linkonce_odr dso_local void @_ZNSt15__new_allocatorIN4Luau9TypeErrorEEC2Ev(ptr noundef nonnull align 1 dereferenceable(1) %0) unnamed_addr #2 comdat align 2 {
  %2 = alloca ptr, align 8
  store ptr %0, ptr %2, align 8, !tbaa !716
  ret void
}

; Function Attrs: inlinehint mustprogress uwtable
define linkonce_odr dso_local void @_ZN4Luau8TypePath4PathC2ERKS1_(ptr noundef nonnull align 8 dereferenceable(24) %0, ptr noundef nonnull align 8 dereferenceable(24) %1) unnamed_addr #5 comdat align 2 {
  %3 = alloca ptr, align 8
  %4 = alloca ptr, align 8
  store ptr %0, ptr %3, align 8, !tbaa !8
  store ptr %1, ptr %4, align 8, !tbaa !8
  %5 = load ptr, ptr %3, align 8
  %6 = getelementptr inbounds nuw %"struct.Luau::TypePath::Path", ptr %5, i32 0, i32 0
  %7 = load ptr, ptr %4, align 8, !tbaa !8
  %8 = getelementptr inbounds nuw %"struct.Luau::TypePath::Path", ptr %7, i32 0, i32 0
  call void @_ZNSt6vectorIN4Luau7VariantIJNS0_8TypePath8PropertyENS2_5IndexENS2_9TypeFieldENS2_9PackFieldENS2_9ReductionEEEESaIS8_EEC2ERKSA_(ptr noundef nonnull align 8 dereferenceable(24) %6, ptr noundef nonnull align 8 dereferenceable(24) %8)
  ret void
}

; Function Attrs: mustprogress nounwind uwtable
define linkonce_odr dso_local void @_ZNSt12_Vector_baseIN4Luau9TypeErrorESaIS1_EE17_Vector_impl_dataC2Ev(ptr noundef nonnull align 8 dereferenceable(24) %0) unnamed_addr #2 comdat align 2 {
  %2 = alloca ptr, align 8
  store ptr %0, ptr %2, align 8, !tbaa !1356
  %3 = load ptr, ptr %2, align 8
  %4 = getelementptr inbounds nuw %"struct.std::_Vector_base<Luau::TypeError, std::allocator<Luau::TypeError>>::_Vector_impl_data", ptr %3, i32 0, i32 0
  store ptr null, ptr %4, align 8, !tbaa !87
  %5 = getelementptr inbounds nuw %"struct.std::_Vector_base<Luau::TypeError, std::allocator<Luau::TypeError>>::_Vector_impl_data", ptr %3, i32 0, i32 1
  store ptr null, ptr %5, align 8, !tbaa !85
  %6 = getelementptr inbounds nuw %"struct.std::_Vector_base<Luau::TypeError, std::allocator<Luau::TypeError>>::_Vector_impl_data", ptr %3, i32 0, i32 2
  store ptr null, ptr %6, align 8, !tbaa !86
  ret void
}

; Function Attrs: mustprogress nounwind uwtable
define linkonce_odr dso_local void @_ZNSaIN4Luau9TypeErrorEEC2Ev(ptr noundef nonnull align 1 dereferenceable(1) %0) unnamed_addr #2 comdat align 2 {
  %2 = alloca ptr, align 8
  store ptr %0, ptr %2, align 8, !tbaa !714
  %3 = load ptr, ptr %2, align 8
  call void @_ZNSt15__new_allocatorIN4Luau9TypeErrorEEC2Ev(ptr noundef nonnull align 1 dereferenceable(1) %3) #4
  ret void
}

; Function Attrs: inlinehint mustprogress nounwind uwtable
define linkonce_odr dso_local void @_ZN4Luau18SubtypingReasoningD2Ev(ptr noundef nonnull align 8 dereferenceable(52) %0) unnamed_addr #3 comdat align 2 {
  %2 = alloca ptr, align 8
  store ptr %0, ptr %2, align 8, !tbaa !20
  %3 = load ptr, ptr %2, align 8
  %4 = getelementptr inbounds nuw %"struct.Luau::SubtypingReasoning", ptr %3, i32 0, i32 1
  call void @_ZN4Luau8TypePath4PathD2Ev(ptr noundef nonnull align 8 dereferenceable(24) %4) #4
  %5 = getelementptr inbounds nuw %"struct.Luau::SubtypingReasoning", ptr %3, i32 0, i32 0
  call void @_ZN4Luau8TypePath4PathD2Ev(ptr noundef nonnull align 8 dereferenceable(24) %5) #4
  ret void
}

; Function Attrs: mustprogress uwtable
define linkonce_odr dso_local void @_ZN4Luau6detail16ItemInterfaceSetINS_18SubtypingReasoningEE4fillEPS2_mRKS2_(ptr noundef %0, i64 noundef %1, ptr noundef nonnull align 8 dereferenceable(52) %2) #6 comdat align 2 {
  %4 = alloca ptr, align 8
  %5 = alloca i64, align 8
  %6 = alloca ptr, align 8
  %7 = alloca i64, align 8
  store ptr %0, ptr %4, align 8, !tbaa !20
  store i64 %1, ptr %5, align 8, !tbaa !57
  store ptr %2, ptr %6, align 8, !tbaa !20
  call void @llvm.lifetime.start.p0(i64 8, ptr %7) #4
  store i64 0, ptr %7, align 8, !tbaa !57
  br label %8

8:                                                ; preds = %18, %3
  %9 = load i64, ptr %7, align 8, !tbaa !57
  %10 = load i64, ptr %5, align 8, !tbaa !57
  %11 = icmp ult i64 %9, %10
  br i1 %11, label %13, label %12

12:                                               ; preds = %8
  call void @llvm.lifetime.end.p0(i64 8, ptr %7) #4
  br label %21

13:                                               ; preds = %8
  %14 = load ptr, ptr %4, align 8, !tbaa !20
  %15 = load i64, ptr %7, align 8, !tbaa !57
  %16 = getelementptr inbounds nuw %"struct.Luau::SubtypingReasoning", ptr %14, i64 %15
  %17 = load ptr, ptr %6, align 8, !tbaa !20
  call void @_ZN4Luau18SubtypingReasoningC2ERKS0_(ptr noundef nonnull align 8 dereferenceable(52) %16, ptr noundef nonnull align 8 dereferenceable(52) %17)
  br label %18

18:                                               ; preds = %13
  %19 = load i64, ptr %7, align 8, !tbaa !57
  %20 = add i64 %19, 1
  store i64 %20, ptr %7, align 8, !tbaa !57
  br label %8, !llvm.loop !1491

21:                                               ; preds = %12
  ret void
}

; Function Attrs: inlinehint mustprogress uwtable
define linkonce_odr dso_local void @_ZN4Luau18SubtypingReasoningC2ERKS0_(ptr noundef nonnull align 8 dereferenceable(52) %0, ptr noundef nonnull align 8 dereferenceable(52) %1) unnamed_addr #5 comdat align 2 personality ptr @__gxx_personality_v0 {
  %3 = alloca ptr, align 8
  %4 = alloca ptr, align 8
  %5 = alloca ptr, align 8
  %6 = alloca i32, align 4
  store ptr %0, ptr %3, align 8, !tbaa !20
  store ptr %1, ptr %4, align 8, !tbaa !20
  %7 = load ptr, ptr %3, align 8
  %8 = getelementptr inbounds nuw %"struct.Luau::SubtypingReasoning", ptr %7, i32 0, i32 0
  %9 = load ptr, ptr %4, align 8, !tbaa !20
  %10 = getelementptr inbounds nuw %"struct.Luau::SubtypingReasoning", ptr %9, i32 0, i32 0
  call void @_ZN4Luau8TypePath4PathC2ERKS1_(ptr noundef nonnull align 8 dereferenceable(24) %8, ptr noundef nonnull align 8 dereferenceable(24) %10)
  %11 = getelementptr inbounds nuw %"struct.Luau::SubtypingReasoning", ptr %7, i32 0, i32 1
  %12 = load ptr, ptr %4, align 8, !tbaa !20
  %13 = getelementptr inbounds nuw %"struct.Luau::SubtypingReasoning", ptr %12, i32 0, i32 1
  invoke void @_ZN4Luau8TypePath4PathC2ERKS1_(ptr noundef nonnull align 8 dereferenceable(24) %11, ptr noundef nonnull align 8 dereferenceable(24) %13)
          to label %14 unwind label %19

14:                                               ; preds = %2
  %15 = getelementptr inbounds nuw %"struct.Luau::SubtypingReasoning", ptr %7, i32 0, i32 2
  %16 = load ptr, ptr %4, align 8, !tbaa !20
  %17 = getelementptr inbounds nuw %"struct.Luau::SubtypingReasoning", ptr %16, i32 0, i32 2
  %18 = load i32, ptr %17, align 8, !tbaa !11
  store i32 %18, ptr %15, align 8, !tbaa !11
  ret void

19:                                               ; preds = %2
  %20 = landingpad { ptr, i32 }
          cleanup
  %21 = extractvalue { ptr, i32 } %20, 0
  store ptr %21, ptr %5, align 8
  %22 = extractvalue { ptr, i32 } %20, 1
  store i32 %22, ptr %6, align 4
  call void @_ZN4Luau8TypePath4PathD2Ev(ptr noundef nonnull align 8 dereferenceable(24) %8) #4
  br label %23

23:                                               ; preds = %19
  %24 = load ptr, ptr %5, align 8
  %25 = load i32, ptr %6, align 4
  %26 = insertvalue { ptr, i32 } poison, ptr %24, 0
  %27 = insertvalue { ptr, i32 } %26, i32 %25, 1
  resume { ptr, i32 } %27
}

; Function Attrs: mustprogress nounwind uwtable
define linkonce_odr dso_local void @_ZNSt12_Vector_baseIN4Luau9TypeErrorESaIS1_EE12_Vector_implC2Ev(ptr noundef nonnull align 8 dereferenceable(24) %0) unnamed_addr #2 comdat align 2 {
  %2 = alloca ptr, align 8
  store ptr %0, ptr %2, align 8, !tbaa !712
  %3 = load ptr, ptr %2, align 8
  call void @_ZNSaIN4Luau9TypeErrorEEC2Ev(ptr noundef nonnull align 1 dereferenceable(1) %3) #4
  call void @_ZNSt12_Vector_baseIN4Luau9TypeErrorESaIS1_EE17_Vector_impl_dataC2Ev(ptr noundef nonnull align 8 dereferenceable(24) %3) #4
  ret void
}

; Function Attrs: mustprogress uwtable
define linkonce_odr dso_local void @_ZN4Luau6detail14DenseHashTableINS_18SubtypingReasoningES2_S2_NS0_16ItemInterfaceSetIS2_EENS_22SubtypingReasoningHashESt8equal_toIS2_EEC2ERKS2_m(ptr noundef nonnull align 8 dereferenceable(82) %0, ptr noundef nonnull align 8 dereferenceable(52) %1, i64 noundef %2) unnamed_addr #6 comdat align 2 personality ptr @__gxx_personality_v0 {
  %4 = alloca ptr, align 8
  %5 = alloca ptr, align 8
  %6 = alloca i64, align 8
  %7 = alloca ptr, align 8
  %8 = alloca i32, align 4
  store ptr %0, ptr %4, align 8, !tbaa !673
  store ptr %1, ptr %5, align 8, !tbaa !20
  store i64 %2, ptr %6, align 8, !tbaa !57
  %9 = load ptr, ptr %4, align 8
  %10 = getelementptr inbounds nuw %"class.Luau::detail::DenseHashTable", ptr %9, i32 0, i32 0
  store ptr null, ptr %10, align 8, !tbaa !79
  %11 = getelementptr inbounds nuw %"class.Luau::detail::DenseHashTable", ptr %9, i32 0, i32 1
  store i64 0, ptr %11, align 8, !tbaa !80
  %12 = getelementptr inbounds nuw %"class.Luau::detail::DenseHashTable", ptr %9, i32 0, i32 2
  store i64 0, ptr %12, align 8, !tbaa !674
  %13 = getelementptr inbounds nuw %"class.Luau::detail::DenseHashTable", ptr %9, i32 0, i32 3
  %14 = load ptr, ptr %5, align 8, !tbaa !20
  call void @_ZN4Luau18SubtypingReasoningC2ERKS0_(ptr noundef nonnull align 8 dereferenceable(52) %13, ptr noundef nonnull align 8 dereferenceable(52) %14)
  %15 = load i64, ptr %6, align 8, !tbaa !57
  %16 = icmp ne i64 %15, 0
  br i1 %16, label %17, label %34

17:                                               ; preds = %3
  %18 = load i64, ptr %6, align 8, !tbaa !57
  %19 = mul i64 56, %18
  %20 = invoke noalias noundef nonnull ptr @_Znwm(i64 noundef %19) #26
          to label %21 unwind label %30

21:                                               ; preds = %17
  %22 = getelementptr inbounds nuw %"class.Luau::detail::DenseHashTable", ptr %9, i32 0, i32 0
  store ptr %20, ptr %22, align 8, !tbaa !79
  %23 = load i64, ptr %6, align 8, !tbaa !57
  %24 = getelementptr inbounds nuw %"class.Luau::detail::DenseHashTable", ptr %9, i32 0, i32 1
  store i64 %23, ptr %24, align 8, !tbaa !80
  %25 = getelementptr inbounds nuw %"class.Luau::detail::DenseHashTable", ptr %9, i32 0, i32 0
  %26 = load ptr, ptr %25, align 8, !tbaa !79
  %27 = load i64, ptr %6, align 8, !tbaa !57
  %28 = load ptr, ptr %5, align 8, !tbaa !20
  invoke void @_ZN4Luau6detail16ItemInterfaceSetINS_18SubtypingReasoningEE4fillEPS2_mRKS2_(ptr noundef %26, i64 noundef %27, ptr noundef nonnull align 8 dereferenceable(52) %28)
          to label %29 unwind label %30

29:                                               ; preds = %21
  br label %34

30:                                               ; preds = %21, %17
  %31 = landingpad { ptr, i32 }
          cleanup
  %32 = extractvalue { ptr, i32 } %31, 0
  store ptr %32, ptr %7, align 8
  %33 = extractvalue { ptr, i32 } %31, 1
  store i32 %33, ptr %8, align 4
  call void @_ZN4Luau18SubtypingReasoningD2Ev(ptr noundef nonnull align 8 dereferenceable(52) %13) #4
  br label %35

34:                                               ; preds = %29, %3
  ret void

35:                                               ; preds = %30
  %36 = load ptr, ptr %7, align 8
  %37 = load i32, ptr %8, align 4
  %38 = insertvalue { ptr, i32 } poison, ptr %36, 0
  %39 = insertvalue { ptr, i32 } %38, i32 %37, 1
  resume { ptr, i32 } %39
}

; Function Attrs: mustprogress nounwind uwtable
define linkonce_odr dso_local void @_ZNSt12_Vector_baseIN4Luau9TypeErrorESaIS1_EEC2Ev(ptr noundef nonnull align 8 dereferenceable(24) %0) unnamed_addr #2 comdat align 2 {
  %2 = alloca ptr, align 8
  store ptr %0, ptr %2, align 8, !tbaa !710
  %3 = load ptr, ptr %2, align 8
  %4 = getelementptr inbounds nuw %"struct.std::_Vector_base.1", ptr %3, i32 0, i32 0
  call void @_ZNSt12_Vector_baseIN4Luau9TypeErrorESaIS1_EE12_Vector_implC2Ev(ptr noundef nonnull align 8 dereferenceable(24) %4) #4
  ret void
}

; Function Attrs: mustprogress uwtable
define linkonce_odr dso_local void @_ZN4Luau12DenseHashSetINS_18SubtypingReasoningENS_22SubtypingReasoningHashESt8equal_toIS1_EEC2ERKS1_m(ptr noundef nonnull align 8 dereferenceable(88) %0, ptr noundef nonnull align 8 dereferenceable(52) %1, i64 noundef %2) unnamed_addr #6 comdat align 2 {
  %4 = alloca ptr, align 8
  %5 = alloca ptr, align 8
  %6 = alloca i64, align 8
  store ptr %0, ptr %4, align 8, !tbaa !53
  store ptr %1, ptr %5, align 8, !tbaa !20
  store i64 %2, ptr %6, align 8, !tbaa !57
  %7 = load ptr, ptr %4, align 8
  %8 = getelementptr inbounds nuw %"class.Luau::DenseHashSet", ptr %7, i32 0, i32 0
  %9 = load ptr, ptr %5, align 8, !tbaa !20
  %10 = load i64, ptr %6, align 8, !tbaa !57
  call void @_ZN4Luau6detail14DenseHashTableINS_18SubtypingReasoningES2_S2_NS0_16ItemInterfaceSetIS2_EENS_22SubtypingReasoningHashESt8equal_toIS2_EEC2ERKS2_m(ptr noundef nonnull align 8 dereferenceable(82) %8, ptr noundef nonnull align 8 dereferenceable(52) %9, i64 noundef %10)
  ret void
}

; Function Attrs: mustprogress nounwind uwtable
define linkonce_odr dso_local void @_ZNSt6vectorIN4Luau9TypeErrorESaIS1_EEC2Ev(ptr noundef nonnull align 8 dereferenceable(24) %0) unnamed_addr #2 comdat align 2 {
  %2 = alloca ptr, align 8
  store ptr %0, ptr %2, align 8, !tbaa !55
  %3 = load ptr, ptr %2, align 8
  call void @_ZNSt12_Vector_baseIN4Luau9TypeErrorESaIS1_EEC2Ev(ptr noundef nonnull align 8 dereferenceable(24) %3) #4
  ret void
}

; Function Attrs: mustprogress uwtable
define dso_local void @_ZN4Luau15SubtypingResult6negateERKS0_(ptr dead_on_unwind noalias writable sret(%"struct.Luau::SubtypingResult") align 8 %0, ptr noundef nonnull align 8 dereferenceable(120) %1) #6 align 2 personality ptr @__gxx_personality_v0 {
  %3 = alloca ptr, align 8
  %4 = alloca ptr, align 8
  %5 = alloca ptr, align 8
  %6 = alloca i32, align 4
  store ptr %0, ptr %3, align 8
  store ptr %1, ptr %4, align 8, !tbaa !37
  %7 = getelementptr inbounds nuw %"struct.Luau::SubtypingResult", ptr %0, i32 0, i32 0
  %8 = load ptr, ptr %4, align 8, !tbaa !37
  %9 = getelementptr inbounds nuw %"struct.Luau::SubtypingResult", ptr %8, i32 0, i32 0
  %10 = load i8, ptr %9, align 8, !tbaa !39, !range !28, !noundef !29
  %11 = trunc i8 %10 to i1
  %12 = xor i1 %11, true
  %13 = zext i1 %12 to i8
  store i8 %13, ptr %7, align 8, !tbaa !39
  %14 = getelementptr inbounds nuw %"struct.Luau::SubtypingResult", ptr %0, i32 0, i32 1
  %15 = load ptr, ptr %4, align 8, !tbaa !37
  %16 = getelementptr inbounds nuw %"struct.Luau::SubtypingResult", ptr %15, i32 0, i32 1
  %17 = load i8, ptr %16, align 1, !tbaa !51, !range !28, !noundef !29
  %18 = trunc i8 %17 to i1
  %19 = zext i1 %18 to i8
  store i8 %19, ptr %14, align 1, !tbaa !51
  %20 = getelementptr inbounds nuw %"struct.Luau::SubtypingResult", ptr %0, i32 0, i32 2
  store i8 1, ptr %20, align 2, !tbaa !52
  %21 = getelementptr inbounds nuw %"struct.Luau::SubtypingResult", ptr %0, i32 0, i32 3
  call void @llvm.memset.p0.i64(ptr align 8 %21, i8 0, i64 24, i1 false)
  call void @_ZNSt6vectorIN4Luau9TypeErrorESaIS1_EEC2Ev(ptr noundef nonnull align 8 dereferenceable(24) %21) #4
  %22 = getelementptr inbounds nuw %"struct.Luau::SubtypingResult", ptr %0, i32 0, i32 4
  invoke void @_ZN4Luau12DenseHashSetINS_18SubtypingReasoningENS_22SubtypingReasoningHashESt8equal_toIS1_EEC2ERKS1_m(ptr noundef nonnull align 8 dereferenceable(88) %22, ptr noundef nonnull align 8 dereferenceable(52) @_ZN4LuauL15kEmptyReasoningE, i64 noundef 0)
          to label %23 unwind label %24

23:                                               ; preds = %2
  ret void

24:                                               ; preds = %2
  %25 = landingpad { ptr, i32 }
          cleanup
  %26 = extractvalue { ptr, i32 } %25, 0
  store ptr %26, ptr %5, align 8
  %27 = extractvalue { ptr, i32 } %25, 1
  store i32 %27, ptr %6, align 4
  call void @_ZNSt6vectorIN4Luau9TypeErrorESaIS1_EED2Ev(ptr noundef nonnull align 8 dereferenceable(24) %21) #4
  br label %28

28:                                               ; preds = %24
  %29 = load ptr, ptr %5, align 8
  %30 = load i32, ptr %6, align 4
  %31 = insertvalue { ptr, i32 } poison, ptr %29, 0
  %32 = insertvalue { ptr, i32 } %31, i32 %30, 1
  resume { ptr, i32 } %32
}