; Function Attrs: mustprogress uwtable
define dso_local void @_ZN4Luau15SubtypingResult6negateERKS0_(ptr dead_on_unwind noalias writable sret(%"struct.Luau::SubtypingResult") align 8 initializes((0, 3), (8, 56)) %0, ptr noundef nonnull readonly align 8 captures(none) dereferenceable(120) %1) local_unnamed_addr #4 align 2 personality ptr @__gxx_personality_v0 {
  %3 = load i8, ptr %1, align 8, !tbaa !26, !range !40, !noundef !41
  %4 = xor i8 %3, 1
  store i8 %4, ptr %0, align 8, !tbaa !26
  %5 = getelementptr inbounds nuw i8, ptr %0, i64 1
  %6 = getelementptr inbounds nuw i8, ptr %1, i64 1
  %7 = load i8, ptr %6, align 1, !tbaa !42, !range !40, !noundef !41
  store i8 %7, ptr %5, align 1, !tbaa !42
  %8 = getelementptr inbounds nuw i8, ptr %0, i64 2
  store i8 1, ptr %8, align 2, !tbaa !43
  %9 = getelementptr inbounds nuw i8, ptr %0, i64 8
  %10 = getelementptr inbounds nuw i8, ptr %0, i64 56
  tail call void @llvm.memset.p0.i64(ptr noundef nonnull align 8 dereferenceable(48) %9, i8 0, i64 48, i1 false)
  invoke void @_ZNSt6vectorIN4Luau7VariantIJNS0_8TypePath8PropertyENS2_5IndexENS2_9TypeFieldENS2_9PackFieldENS2_9ReductionEEEESaIS8_EEC2ERKSA_(ptr noundef nonnull align 8 dereferenceable(52) %10, ptr noundef nonnull align 8 dereferenceable(52) @_ZN4LuauL15kEmptyReasoningE)
          to label %.noexc unwind label %17

.noexc:                                           ; preds = %2
  %11 = getelementptr inbounds nuw i8, ptr %0, i64 80
  invoke void @_ZNSt6vectorIN4Luau7VariantIJNS0_8TypePath8PropertyENS2_5IndexENS2_9TypeFieldENS2_9PackFieldENS2_9ReductionEEEESaIS8_EEC2ERKSA_(ptr noundef nonnull align 8 dereferenceable(24) %11, ptr noundef nonnull align 8 dereferenceable(24) getelementptr inbounds nuw (i8, ptr @_ZN4LuauL15kEmptyReasoningE, i64 24))
          to label %14 unwind label %12

12:                                               ; preds = %.noexc
  %13 = landingpad { ptr, i32 }
          cleanup
  tail call void @_ZN4Luau8TypePath4PathD2Ev(ptr noundef nonnull align 8 dereferenceable(52) %10) #29
  br label %.body

14:                                               ; preds = %.noexc
  %15 = getelementptr inbounds nuw i8, ptr %0, i64 104
  %16 = load i32, ptr getelementptr inbounds nuw (i8, ptr @_ZN4LuauL15kEmptyReasoningE, i64 48), align 8, !tbaa !19
  store i32 %16, ptr %15, align 8, !tbaa !19
  ret void

17:                                               ; preds = %2
  %18 = landingpad { ptr, i32 }
          cleanup
  br label %.body

.body:                                            ; preds = %12, %17
  %eh.lpad-body = phi { ptr, i32 } [ %18, %17 ], [ %13, %12 ]
  tail call void @_ZNSt6vectorIN4Luau9TypeErrorESaIS1_EED2Ev(ptr noundef nonnull align 8 dereferenceable(24) %9) #29
  resume { ptr, i32 } %eh.lpad-body
}